target datalayout = "e-m:e-p270:32:32-p271:32:32-p272:64:64-i64:64-i128:128-f80:128-n8:16:32:64-S128"
target triple = "x86_64-pc-linux-gnu"

%struct.KINMemRec = type { ptr, double, ptr, ptr, double, double, i32, i64, i64, i64, i64, i32, i32, i32, i32, i32, i32, i32, i32, double, double, double, double, double, double, double, double, double, i32, double, i64, i64, i64, i64, i64, i64, i64, ptr, ptr, ptr, ptr, ptr, ptr, ptr, ptr, ptr, ptr, ptr, i32, i32, double, ptr, ptr, ptr, ptr, ptr, double, ptr, ptr, ptr, ptr, i64, i64, i32, ptr, ptr, i32, ptr, ptr, i64, i64, i64, i64, ptr, ptr, ptr, ptr, i32, ptr, double, double, double, double, double, i32, double, double, double, i32 }
%struct.KINLsMemRec = type { i32, i32, i32, ptr, ptr, ptr, ptr, double, i64, i64, i64, i64, i64, i64, i64, i32, i32, ptr, ptr, ptr, ptr, i32, ptr, ptr, ptr }

@.str = private unnamed_addr constant [118 x i8] c"generated/home/dtcxzyw/WorkSpace/Projects/compilers/llvm-opt-benchmark/bench/sundials/sundials/src/kinsol/kinsol_ls.c\00", align 1
@.str.1 = private unnamed_addr constant [23 x i8] c"KINSOL memory is NULL.\00", align 1
@__func__.kinLsPSolve = private unnamed_addr constant [12 x i8] c"kinLsPSolve\00", align 1
@.str.26 = private unnamed_addr constant [30 x i8] c"Linear solver memory is NULL.\00", align 1

; Function Attrs: nounwind uwtable
define i32 @kinLs_AccessLMem(ptr noundef %0, ptr noundef %1, ptr noundef %2, ptr noundef %3) #0 {
  %5 = alloca i32, align 4
  %6 = alloca ptr, align 8
  %7 = alloca ptr, align 8
  %8 = alloca ptr, align 8
  %9 = alloca ptr, align 8
  store ptr %0, ptr %6, align 8, !tbaa !3
  store ptr %1, ptr %7, align 8, !tbaa !105
  store ptr %2, ptr %8, align 8, !tbaa !107
  store ptr %3, ptr %9, align 8, !tbaa !109
  %10 = load ptr, ptr %6, align 8, !tbaa !3
  %11 = icmp eq ptr %10, null
  br i1 %11, label %12, label %14

12:                                               ; preds = %4
  %13 = load ptr, ptr %7, align 8, !tbaa !105
  call void (ptr, i32, i32, ptr, ptr, ptr, ...) @KINProcessError(ptr noundef null, i32 noundef -1, i32 noundef 1399, ptr noundef %13, ptr noundef @.str, ptr noundef @.str.1)
  store i32 -1, ptr %5, align 4
  br label %32

14:                                               ; preds = %4
  %15 = load ptr, ptr %6, align 8, !tbaa !3
  %16 = load ptr, ptr %8, align 8, !tbaa !107
  store ptr %15, ptr %16, align 8, !tbaa !11
  %17 = load ptr, ptr %8, align 8, !tbaa !107
  %18 = load ptr, ptr %17, align 8, !tbaa !11
  %19 = getelementptr inbounds nuw %struct.KINMemRec, ptr %18, i32 0, i32 78
  %20 = load ptr, ptr %19, align 8, !tbaa !66
  %21 = icmp eq ptr %20, null
  br i1 %21, label %22, label %26

22:                                               ; preds = %14
  %23 = load ptr, ptr %8, align 8, !tbaa !107
  %24 = load ptr, ptr %23, align 8, !tbaa !11
  %25 = load ptr, ptr %7, align 8, !tbaa !105
  call void (ptr, i32, i32, ptr, ptr, ptr, ...) @KINProcessError(ptr noundef %24, i32 noundef -2, i32 noundef 1406, ptr noundef %25, ptr noundef @.str, ptr noundef @.str.26)
  store i32 -2, ptr %5, align 4
  br label %32

26:                                               ; preds = %14
  %27 = load ptr, ptr %8, align 8, !tbaa !107
  %28 = load ptr, ptr %27, align 8, !tbaa !11
  %29 = getelementptr inbounds nuw %struct.KINMemRec, ptr %28, i32 0, i32 78
  %30 = load ptr, ptr %29, align 8, !tbaa !66
  %31 = load ptr, ptr %9, align 8, !tbaa !109
  store ptr %30, ptr %31, align 8, !tbaa !45
  store i32 0, ptr %5, align 4
  br label %32

32:                                               ; preds = %26, %22, %12
  %33 = load i32, ptr %5, align 4
  ret i32 %33
}

; Function Attrs: nounwind uwtable
define i32 @kinLsPSolve(ptr noundef %0, ptr noundef %1, ptr noundef %2, double noundef %3, i32 noundef %4) #0 {
  %6 = alloca i32, align 4
  %7 = alloca ptr, align 8
  %8 = alloca ptr, align 8
  %9 = alloca ptr, align 8
  %10 = alloca double, align 8
  %11 = alloca i32, align 4
  %12 = alloca ptr, align 8
  %13 = alloca ptr, align 8
  %14 = alloca i32, align 4
  %15 = alloca i32, align 4
  store ptr %0, ptr %7, align 8, !tbaa !3
  store ptr %1, ptr %8, align 8, !tbaa !85
  store ptr %2, ptr %9, align 8, !tbaa !85
  store double %3, ptr %10, align 8, !tbaa !88
  store i32 %4, ptr %11, align 4, !tbaa !20
  call void @llvm.lifetime.start.p0(i64 8, ptr %12) #7
  call void @llvm.lifetime.start.p0(i64 8, ptr %13) #7
  call void @llvm.lifetime.start.p0(i64 4, ptr %14) #7
  %16 = load ptr, ptr %7, align 8, !tbaa !3
  %17 = call i32 @kinLs_AccessLMem(ptr noundef %16, ptr noundef @__func__.kinLsPSolve, ptr noundef %12, ptr noundef %13)
  store i32 %17, ptr %14, align 4, !tbaa !20
  %18 = load i32, ptr %14, align 4, !tbaa !20
  %19 = icmp ne i32 %18, 0
  br i1 %19, label %20, label %22

20:                                               ; preds = %5
  %21 = load i32, ptr %14, align 4, !tbaa !20
  store i32 %21, ptr %6, align 4
  store i32 1, ptr %15, align 4
  br label %50

22:                                               ; preds = %5
  %23 = load ptr, ptr %8, align 8, !tbaa !85
  %24 = load ptr, ptr %9, align 8, !tbaa !85
  call void @N_VScale(double noundef 1.000000e+00, ptr noundef %23, ptr noundef %24)
  %25 = load ptr, ptr %13, align 8, !tbaa !45
  %26 = getelementptr inbounds nuw %struct.KINLsMemRec, ptr %25, i32 0, i32 18
  %27 = load ptr, ptr %26, align 8, !tbaa !58
  %28 = load ptr, ptr %12, align 8, !tbaa !11
  %29 = getelementptr inbounds nuw %struct.KINMemRec, ptr %28, i32 0, i32 37
  %30 = load ptr, ptr %29, align 8, !tbaa !80
  %31 = load ptr, ptr %12, align 8, !tbaa !11
  %32 = getelementptr inbounds nuw %struct.KINMemRec, ptr %31, i32 0, i32 41
  %33 = load ptr, ptr %32, align 8, !tbaa !99
  %34 = load ptr, ptr %12, align 8, !tbaa !11
  %35 = getelementptr inbounds nuw %struct.KINMemRec, ptr %34, i32 0, i32 39
  %36 = load ptr, ptr %35, align 8, !tbaa !81
  %37 = load ptr, ptr %12, align 8, !tbaa !11
  %38 = getelementptr inbounds nuw %struct.KINMemRec, ptr %37, i32 0, i32 42
  %39 = load ptr, ptr %38, align 8, !tbaa !77
  %40 = load ptr, ptr %9, align 8, !tbaa !85
  %41 = load ptr, ptr %13, align 8, !tbaa !45
  %42 = getelementptr inbounds nuw %struct.KINLsMemRec, ptr %41, i32 0, i32 20
  %43 = load ptr, ptr %42, align 8, !tbaa !61
  %44 = call i32 %27(ptr noundef %30, ptr noundef %33, ptr noundef %36, ptr noundef %39, ptr noundef %40, ptr noundef %43)
  store i32 %44, ptr %14, align 4, !tbaa !20
  %45 = load ptr, ptr %13, align 8, !tbaa !45
  %46 = getelementptr inbounds nuw %struct.KINLsMemRec, ptr %45, i32 0, i32 12
  %47 = load i64, ptr %46, align 8, !tbaa !103
  %48 = add nsw i64 %47, 1
  store i64 %48, ptr %46, align 8, !tbaa !103
  %49 = load i32, ptr %14, align 4, !tbaa !20
  store i32 %49, ptr %6, align 4
  store i32 1, ptr %15, align 4
  br label %50

50:                                               ; preds = %22, %20
  call void @llvm.lifetime.end.p0(i64 4, ptr %14) #7
  call void @llvm.lifetime.end.p0(i64 8, ptr %13) #7
  call void @llvm.lifetime.end.p0(i64 8, ptr %12) #7
  %51 = load i32, ptr %6, align 4
  ret i32 %51
}