; Function Attrs: nounwind uwtable
define i32 @kinLsPSolve(ptr noundef %0, ptr noundef %1, ptr noundef %2, double %3, i32 %4) #0 {
  %6 = icmp eq ptr %0, null
  br i1 %6, label %7, label %8

7:                                                ; preds = %5
  tail call void (ptr, i32, i32, ptr, ptr, ptr, ...) @KINProcessError(ptr noundef null, i32 noundef -1, i32 noundef 1399, ptr noundef nonnull @__func__.kinLsPSolve, ptr noundef nonnull @.str, ptr noundef nonnull @.str.1) #13
  br label %kinLs_AccessLMem.exit.thread

8:                                                ; preds = %5
  %9 = getelementptr inbounds nuw i8, ptr %0, i64 584
  %10 = load ptr, ptr %9, align 8, !tbaa !55
  %11 = icmp eq ptr %10, null
  br i1 %11, label %12, label %kinLs_AccessLMem.exit

12:                                               ; preds = %8
  tail call void (ptr, i32, i32, ptr, ptr, ptr, ...) @KINProcessError(ptr noundef nonnull %0, i32 noundef -2, i32 noundef 1406, ptr noundef nonnull @__func__.kinLsPSolve, ptr noundef nonnull @.str, ptr noundef nonnull @.str.26) #13
  br label %kinLs_AccessLMem.exit.thread

kinLs_AccessLMem.exit:                            ; preds = %8
  tail call void @N_VScale(double noundef 1.000000e+00, ptr noundef %1, ptr noundef %2) #13
  %13 = getelementptr inbounds nuw i8, ptr %10, i64 128
  %14 = load ptr, ptr %13, align 8, !tbaa !66
  %15 = getelementptr inbounds nuw i8, ptr %0, i64 264
  %16 = load ptr, ptr %15, align 8, !tbaa !72
  %17 = getelementptr inbounds nuw i8, ptr %0, i64 296
  %18 = load ptr, ptr %17, align 8, !tbaa !88
  %19 = getelementptr inbounds nuw i8, ptr %0, i64 280
  %20 = load ptr, ptr %19, align 8, !tbaa !73
  %21 = getelementptr inbounds nuw i8, ptr %0, i64 304
  %22 = load ptr, ptr %21, align 8, !tbaa !68
  %23 = getelementptr inbounds nuw i8, ptr %10, i64 144
  %24 = load ptr, ptr %23, align 8, !tbaa !50
  %25 = tail call i32 %14(ptr noundef %16, ptr noundef %18, ptr noundef %20, ptr noundef %22, ptr noundef %2, ptr noundef %24) #13
  %26 = getelementptr inbounds nuw i8, ptr %10, i64 88
  %27 = load i64, ptr %26, align 8, !tbaa !97
  %28 = add nsw i64 %27, 1
  store i64 %28, ptr %26, align 8, !tbaa !97
  br label %kinLs_AccessLMem.exit.thread

kinLs_AccessLMem.exit.thread:                     ; preds = %12, %7, %kinLs_AccessLMem.exit
  %.0 = phi i32 [ %25, %kinLs_AccessLMem.exit ], [ -2, %12 ], [ -1, %7 ]
  ret i32 %.0
}